target datalayout = "e-m:e-p270:32:32-p271:32:32-p272:64:64-i64:64-i128:128-f80:128-n8:16:32:64-S128"
target triple = "x86_64-pc-linux-gnu"

%struct._lv_global_t = type { i8, i8, %struct.lv_ll_t, ptr, ptr, %struct.lv_ll_t, i8, i32, i32, ptr, %struct.lv_ll_t, ptr, %struct.lv_ll_t, ptr, ptr, i32, ptr, i8, i32, i32, ptr, i32, %struct.lv_timer_state_t, %struct.lv_anim_state_t, %struct.lv_tick_state_t, %struct._lv_draw_buf_handlers_t, %struct._lv_draw_buf_handlers_t, %struct._lv_draw_buf_handlers_t, %struct.lv_ll_t, ptr, ptr, %struct.lv_draw_global_info_t, [4 x %struct.lv_draw_sw_mask_radius_circle_dsc_t], ptr, ptr, ptr, %struct.lv_tlsf_state_t, %struct.lv_ll_t, ptr, ptr, %struct.lv_style_t, i64, ptr, i32, ptr }
%struct.lv_timer_state_t = type { %struct.lv_ll_t, i8, i8, i8, i8, i32, i8, i32, i32, i32, i32, ptr, ptr }
%struct.lv_anim_state_t = type { i8, i8, ptr, %struct.lv_ll_t }
%struct.lv_tick_state_t = type { i32, i8, ptr, ptr }
%struct._lv_draw_buf_handlers_t = type { ptr, ptr, ptr, ptr, ptr, ptr }
%struct.lv_draw_global_info_t = type { ptr, i32, i32, i32, i32, i8 }
%struct.lv_draw_sw_mask_radius_circle_dsc_t = type { ptr, ptr, ptr, ptr, i32, i32, i32 }
%struct.lv_tlsf_state_t = type { ptr, i64, i64, %struct.lv_ll_t }
%struct.lv_ll_t = type { i32, ptr, ptr }
%struct.lv_style_t = type { ptr, i32, i8 }
%struct._lv_anim_t = type { ptr, ptr, ptr, ptr, ptr, ptr, ptr, ptr, ptr, i32, i32, i32, i32, i32, i32, i32, i32, i32, %union._lv_anim_path_para_t, i32, i8 }
%union._lv_anim_path_para_t = type { %struct.lv_anim_bezier3_para_t }
%struct.lv_anim_bezier3_para_t = type { i16, i16, i16, i16 }

@lv_global = external global %struct._lv_global_t, align 8

; Function Attrs: nounwind uwtable
define internal void @anim_mark_list_change() #0 {
  store i8 1, ptr getelementptr inbounds nuw (%struct._lv_global_t, ptr @lv_global, i32 0, i32 23), align 8, !tbaa !19
  %1 = call ptr @lv_ll_get_head(ptr noundef getelementptr inbounds nuw (%struct.lv_anim_state_t, ptr getelementptr inbounds nuw (%struct._lv_global_t, ptr @lv_global, i32 0, i32 23), i32 0, i32 3))
  %2 = icmp eq ptr %1, null
  br i1 %2, label %3, label %5

3:                                                ; preds = %0
  %4 = load ptr, ptr getelementptr inbounds nuw (%struct.lv_anim_state_t, ptr getelementptr inbounds nuw (%struct._lv_global_t, ptr @lv_global, i32 0, i32 23), i32 0, i32 2), align 8, !tbaa !3
  call void @lv_timer_pause(ptr noundef %4)
  br label %7

5:                                                ; preds = %0
  %6 = load ptr, ptr getelementptr inbounds nuw (%struct.lv_anim_state_t, ptr getelementptr inbounds nuw (%struct._lv_global_t, ptr @lv_global, i32 0, i32 23), i32 0, i32 2), align 8, !tbaa !3
  call void @lv_timer_resume(ptr noundef %6)
  br label %7

7:                                                ; preds = %5, %3
  ret void
}

; Function Attrs: nounwind uwtable
define internal zeroext i1 @remove_concurrent_anims(ptr noundef %0) #0 {
  %2 = alloca i1, align 1
  %3 = alloca ptr, align 8
  %4 = alloca ptr, align 8
  %5 = alloca i8, align 1
  %6 = alloca i8, align 1
  store ptr %0, ptr %3, align 8, !tbaa !21
  %7 = load ptr, ptr %3, align 8, !tbaa !21
  %8 = getelementptr inbounds nuw %struct._lv_anim_t, ptr %7, i32 0, i32 1
  %9 = load ptr, ptr %8, align 8, !tbaa !35
  %10 = icmp eq ptr %9, null
  br i1 %10, label %11, label %17

11:                                               ; preds = %1
  %12 = load ptr, ptr %3, align 8, !tbaa !21
  %13 = getelementptr inbounds nuw %struct._lv_anim_t, ptr %12, i32 0, i32 2
  %14 = load ptr, ptr %13, align 8, !tbaa !37
  %15 = icmp eq ptr %14, null
  br i1 %15, label %16, label %17

16:                                               ; preds = %11
  store i1 false, ptr %2, align 1
  br label %86

17:                                               ; preds = %11, %1
  call void @llvm.lifetime.start.p0(i64 8, ptr %4) #4
  call void @llvm.lifetime.start.p0(i64 1, ptr %5) #4
  store i8 0, ptr %5, align 1, !tbaa !45
  %18 = call ptr @lv_ll_get_head(ptr noundef getelementptr inbounds nuw (%struct.lv_anim_state_t, ptr getelementptr inbounds nuw (%struct._lv_global_t, ptr @lv_global, i32 0, i32 23), i32 0, i32 3))
  store ptr %18, ptr %4, align 8, !tbaa !21
  br label %19

19:                                               ; preds = %81, %17
  %20 = load ptr, ptr %4, align 8, !tbaa !21
  %21 = icmp ne ptr %20, null
  br i1 %21, label %22, label %83

22:                                               ; preds = %19
  call void @llvm.lifetime.start.p0(i64 1, ptr %6) #4
  store i8 0, ptr %6, align 1, !tbaa !45
  %23 = load ptr, ptr %4, align 8, !tbaa !21
  %24 = load ptr, ptr %3, align 8, !tbaa !21
  %25 = icmp ne ptr %23, %24
  br i1 %25, label %26, label %73

26:                                               ; preds = %22
  %27 = load ptr, ptr %4, align 8, !tbaa !21
  %28 = getelementptr inbounds nuw %struct._lv_anim_t, ptr %27, i32 0, i32 13
  %29 = load i32, ptr %28, align 8, !tbaa !27
  %30 = icmp sge i32 %29, 0
  br i1 %30, label %39, label %31

31:                                               ; preds = %26
  %32 = load ptr, ptr %4, align 8, !tbaa !21
  %33 = getelementptr inbounds nuw %struct._lv_anim_t, ptr %32, i32 0, i32 20
  %34 = load i8, ptr %33, align 8
  %35 = lshr i8 %34, 3
  %36 = and i8 %35, 1
  %37 = zext i8 %36 to i32
  %38 = icmp ne i32 %37, 0
  br i1 %38, label %39, label %73

39:                                               ; preds = %31, %26
  %40 = load ptr, ptr %4, align 8, !tbaa !21
  %41 = getelementptr inbounds nuw %struct._lv_anim_t, ptr %40, i32 0, i32 0
  %42 = load ptr, ptr %41, align 8, !tbaa !36
  %43 = load ptr, ptr %3, align 8, !tbaa !21
  %44 = getelementptr inbounds nuw %struct._lv_anim_t, ptr %43, i32 0, i32 0
  %45 = load ptr, ptr %44, align 8, !tbaa !36
  %46 = icmp eq ptr %42, %45
  br i1 %46, label %47, label %73

47:                                               ; preds = %39
  %48 = load ptr, ptr %4, align 8, !tbaa !21
  %49 = getelementptr inbounds nuw %struct._lv_anim_t, ptr %48, i32 0, i32 1
  %50 = load ptr, ptr %49, align 8, !tbaa !35
  %51 = icmp ne ptr %50, null
  br i1 %51, label %52, label %73

52:                                               ; preds = %47
  %53 = load ptr, ptr %4, align 8, !tbaa !21
  %54 = getelementptr inbounds nuw %struct._lv_anim_t, ptr %53, i32 0, i32 1
  %55 = load ptr, ptr %54, align 8, !tbaa !35
  %56 = load ptr, ptr %3, align 8, !tbaa !21
  %57 = getelementptr inbounds nuw %struct._lv_anim_t, ptr %56, i32 0, i32 1
  %58 = load ptr, ptr %57, align 8, !tbaa !35
  %59 = icmp eq ptr %55, %58
  br i1 %59, label %60, label %73

60:                                               ; preds = %52
  %61 = load ptr, ptr %4, align 8, !tbaa !21
  call void @lv_ll_remove(ptr noundef getelementptr inbounds nuw (%struct.lv_anim_state_t, ptr getelementptr inbounds nuw (%struct._lv_global_t, ptr @lv_global, i32 0, i32 23), i32 0, i32 3), ptr noundef %61)
  %62 = load ptr, ptr %4, align 8, !tbaa !21
  %63 = getelementptr inbounds nuw %struct._lv_anim_t, ptr %62, i32 0, i32 5
  %64 = load ptr, ptr %63, align 8, !tbaa !46
  %65 = icmp ne ptr %64, null
  br i1 %65, label %66, label %71

66:                                               ; preds = %60
  %67 = load ptr, ptr %4, align 8, !tbaa !21
  %68 = getelementptr inbounds nuw %struct._lv_anim_t, ptr %67, i32 0, i32 5
  %69 = load ptr, ptr %68, align 8, !tbaa !46
  %70 = load ptr, ptr %4, align 8, !tbaa !21
  call void %69(ptr noundef %70)
  br label %71

71:                                               ; preds = %66, %60
  %72 = load ptr, ptr %4, align 8, !tbaa !21
  call void @lv_free(ptr noundef %72)
  call void @anim_mark_list_change()
  store i8 1, ptr %5, align 1, !tbaa !45
  store i8 1, ptr %6, align 1, !tbaa !45
  br label %73

73:                                               ; preds = %71, %52, %47, %39, %31, %22
  %74 = load i8, ptr %6, align 1, !tbaa !45, !range !22, !noundef !23
  %75 = trunc i8 %74 to i1
  br i1 %75, label %76, label %78

76:                                               ; preds = %73
  %77 = call ptr @lv_ll_get_head(ptr noundef getelementptr inbounds nuw (%struct.lv_anim_state_t, ptr getelementptr inbounds nuw (%struct._lv_global_t, ptr @lv_global, i32 0, i32 23), i32 0, i32 3))
  br label %81

78:                                               ; preds = %73
  %79 = load ptr, ptr %4, align 8, !tbaa !21
  %80 = call ptr @lv_ll_get_next(ptr noundef getelementptr inbounds nuw (%struct.lv_anim_state_t, ptr getelementptr inbounds nuw (%struct._lv_global_t, ptr @lv_global, i32 0, i32 23), i32 0, i32 3), ptr noundef %79)
  br label %81

81:                                               ; preds = %78, %76
  %82 = phi ptr [ %77, %76 ], [ %80, %78 ]
  store ptr %82, ptr %4, align 8, !tbaa !21
  call void @llvm.lifetime.end.p0(i64 1, ptr %6) #4
  br label %19, !llvm.loop !47

83:                                               ; preds = %19
  %84 = load i8, ptr %5, align 1, !tbaa !45, !range !22, !noundef !23
  %85 = trunc i8 %84 to i1
  store i1 %85, ptr %2, align 1
  call void @llvm.lifetime.end.p0(i64 1, ptr %5) #4
  call void @llvm.lifetime.end.p0(i64 8, ptr %4) #4
  br label %86

86:                                               ; preds = %83, %16
  %87 = load i1, ptr %2, align 1
  ret i1 %87
}