; Function Attrs: nounwind uwtable
define internal fastcc void @remove_concurrent_anims(ptr noundef nonnull readonly %0) unnamed_addr #0 {
  %2 = getelementptr inbounds nuw i8, ptr %0, i64 8
  %3 = load ptr, ptr %2, align 8, !tbaa !33
  %4 = icmp eq ptr %3, null
  br i1 %4, label %5, label %9

5:                                                ; preds = %1
  %6 = getelementptr inbounds nuw i8, ptr %0, i64 16
  %7 = load ptr, ptr %6, align 8, !tbaa !35
  %8 = icmp eq ptr %7, null
  br i1 %8, label %.loopexit, label %9

9:                                                ; preds = %5, %1
  %10 = tail call ptr @lv_ll_get_head(ptr noundef nonnull getelementptr inbounds nuw (i8, ptr @lv_global, i64 304)) #8
  %.not34 = icmp eq ptr %10, null
  br i1 %.not34, label %.loopexit, label %.lr.ph

.lr.ph:                                           ; preds = %9, %42
  %.02135 = phi ptr [ %43, %42 ], [ %10, %9 ]
  %.not26 = icmp eq ptr %.02135, %0
  br i1 %.not26, label %40, label %11

11:                                               ; preds = %.lr.ph
  %12 = getelementptr inbounds nuw i8, ptr %.02135, i64 88
  %13 = load i32, ptr %12, align 8, !tbaa !25
  %14 = icmp sgt i32 %13, -1
  br i1 %14, label %19, label %15

15:                                               ; preds = %11
  %16 = getelementptr inbounds nuw i8, ptr %.02135, i64 120
  %17 = load i8, ptr %16, align 8
  %18 = and i8 %17, 8
  %.not27 = icmp eq i8 %18, 0
  br i1 %.not27, label %40, label %19

19:                                               ; preds = %15, %11
  %20 = load ptr, ptr %.02135, align 8, !tbaa !34
  %21 = load ptr, ptr %0, align 8, !tbaa !34
  %22 = icmp eq ptr %20, %21
  br i1 %22, label %23, label %40

23:                                               ; preds = %19
  %24 = getelementptr inbounds nuw i8, ptr %.02135, i64 8
  %25 = load ptr, ptr %24, align 8, !tbaa !33
  %.not28 = icmp eq ptr %25, null
  br i1 %.not28, label %40, label %26

26:                                               ; preds = %23
  %27 = load ptr, ptr %2, align 8, !tbaa !33
  %28 = icmp eq ptr %25, %27
  br i1 %28, label %29, label %40

29:                                               ; preds = %26
  tail call void @lv_ll_remove(ptr noundef nonnull getelementptr inbounds nuw (i8, ptr @lv_global, i64 304), ptr noundef nonnull %.02135) #8
  %30 = getelementptr inbounds nuw i8, ptr %.02135, i64 40
  %31 = load ptr, ptr %30, align 8, !tbaa !39
  %.not29 = icmp eq ptr %31, null
  br i1 %.not29, label %33, label %32

32:                                               ; preds = %29
  tail call void %31(ptr noundef nonnull %.02135) #8
  br label %33

33:                                               ; preds = %32, %29
  tail call void @lv_free(ptr noundef nonnull %.02135) #8
  store i8 1, ptr getelementptr inbounds nuw (i8, ptr @lv_global, i64 288), align 8, !tbaa !19
  %34 = tail call ptr @lv_ll_get_head(ptr noundef nonnull getelementptr inbounds nuw (i8, ptr @lv_global, i64 304)) #8
  %35 = icmp eq ptr %34, null
  %36 = load ptr, ptr getelementptr inbounds nuw (i8, ptr @lv_global, i64 296), align 8, !tbaa !3
  br i1 %35, label %37, label %38

37:                                               ; preds = %33
  tail call void @lv_timer_pause(ptr noundef %36) #8
  br label %anim_mark_list_change.exit

38:                                               ; preds = %33
  tail call void @lv_timer_resume(ptr noundef %36) #8
  br label %anim_mark_list_change.exit

anim_mark_list_change.exit:                       ; preds = %37, %38
  %39 = tail call ptr @lv_ll_get_head(ptr noundef nonnull getelementptr inbounds nuw (i8, ptr @lv_global, i64 304)) #8
  br label %42

40:                                               ; preds = %26, %23, %19, %15, %.lr.ph
  %41 = tail call ptr @lv_ll_get_next(ptr noundef nonnull getelementptr inbounds nuw (i8, ptr @lv_global, i64 304), ptr noundef nonnull %.02135) #8
  br label %42

42:                                               ; preds = %40, %anim_mark_list_change.exit
  %43 = phi ptr [ %39, %anim_mark_list_change.exit ], [ %41, %40 ]
  %.not = icmp eq ptr %43, null
  br i1 %.not, label %.loopexit, label %.lr.ph, !llvm.loop !44

.loopexit:                                        ; preds = %42, %9, %5
  ret void
}